target datalayout = "e-m:e-p270:32:32-p271:32:32-p272:64:64-i64:64-i128:128-f80:128-n8:16:32:64-S128"
target triple = "x86_64-pc-linux-gnu"

@ranap_ies_p1_dissector_table = internal global ptr null, align 8
@ProtocolIE_ID = internal global i32 0, align 4

; Function Attrs: null_pointer_is_valid sspstrong uwtable
define internal i32 @dissect_ProtocolIEFieldPairFirstValue(ptr noundef %0, ptr noundef %1, ptr noundef %2, ptr noundef %3) #0 {
  %5 = alloca ptr, align 8
  %6 = alloca ptr, align 8
  %7 = alloca ptr, align 8
  %8 = alloca ptr, align 8
  store ptr %0, ptr %5, align 8
  store ptr %1, ptr %6, align 8
  store ptr %2, ptr %7, align 8
  store ptr %3, ptr %8, align 8
  %9 = load ptr, ptr @ranap_ies_p1_dissector_table, align 8
  %10 = load i32, ptr @ProtocolIE_ID, align 4
  %11 = load ptr, ptr %5, align 8
  %12 = load ptr, ptr %6, align 8
  %13 = load ptr, ptr %7, align 8
  %14 = call i32 @dissector_try_uint_with_data(ptr noundef %9, i32 noundef %10, ptr noundef %11, ptr noundef %12, ptr noundef %13, i1 noundef zeroext false, ptr noundef null)
  %15 = icmp ne i32 %14, 0
  br i1 %15, label %16, label %19

16:                                               ; preds = %4
  %17 = load ptr, ptr %5, align 8
  %18 = call i32 @tvb_captured_length(ptr noundef %17)
  br label %20

19:                                               ; preds = %4
  br label %20

20:                                               ; preds = %19, %16
  %21 = phi i32 [ %18, %16 ], [ 0, %19 ]
  ret i32 %21
}